target datalayout = "e-m:e-p270:32:32-p271:32:32-p272:64:64-i64:64-i128:128-f80:128-n8:16:32:64-S128"
target triple = "x86_64-pc-linux-gnu"

%struct._object = type { %union.anon, ptr }
%union.anon = type { i64 }
%struct._odictobject = type { %struct.PyDictObject, ptr, ptr, ptr, i64, ptr, i64, ptr, ptr }
%struct.PyDictObject = type { %struct._object, i64, i64, ptr, ptr }
%struct.anon = type { i32, i32 }

@PyExc_KeyError = external global ptr, align 8

; Function Attrs: alwaysinline nounwind uwtable
define internal void @Py_INCREF(ptr noundef %0) #4 {
  %2 = alloca ptr, align 8
  %3 = alloca i32, align 4
  %4 = alloca i32, align 4
  store ptr %0, ptr %2, align 8, !tbaa !42
  call void @llvm.lifetime.start.p0(i64 4, ptr %3) #7
  %5 = load ptr, ptr %2, align 8, !tbaa !42
  %6 = getelementptr inbounds nuw %struct._object, ptr %5, i32 0, i32 0
  %7 = getelementptr inbounds nuw %struct.anon, ptr %6, i32 0, i32 0
  %8 = load i32, ptr %7, align 8, !tbaa !74
  store i32 %8, ptr %3, align 4, !tbaa !43
  %9 = load i32, ptr %3, align 4, !tbaa !43
  %10 = icmp slt i32 %9, 0
  br i1 %10, label %11, label %12

11:                                               ; preds = %1
  store i32 1, ptr %4, align 4
  br label %18

12:                                               ; preds = %1
  %13 = load i32, ptr %3, align 4, !tbaa !43
  %14 = add i32 %13, 1
  %15 = load ptr, ptr %2, align 8, !tbaa !42
  %16 = getelementptr inbounds nuw %struct._object, ptr %15, i32 0, i32 0
  %17 = getelementptr inbounds nuw %struct.anon, ptr %16, i32 0, i32 0
  store i32 %14, ptr %17, align 8, !tbaa !74
  store i32 0, ptr %4, align 4
  br label %18

18:                                               ; preds = %12, %11
  call void @llvm.lifetime.end.p0(i64 4, ptr %3) #7
  %19 = load i32, ptr %4, align 4
  switch i32 %19, label %21 [
    i32 0, label %20
    i32 1, label %20
  ]

20:                                               ; preds = %18, %18
  ret void

21:                                               ; preds = %18
  unreachable
}

; Function Attrs: inlinehint nounwind uwtable
define internal ptr @_Py_NewRef(ptr noundef %0) #3 {
  %2 = alloca ptr, align 8
  store ptr %0, ptr %2, align 8, !tbaa !42
  %3 = load ptr, ptr %2, align 8, !tbaa !42
  call void @Py_INCREF(ptr noundef %3)
  %4 = load ptr, ptr %2, align 8, !tbaa !42
  ret ptr %4
}

; Function Attrs: nounwind uwtable
define internal ptr @_odict_find_node_hash(ptr noundef %0, ptr noundef %1, i64 noundef %2) #0 {
  %4 = alloca ptr, align 8
  %5 = alloca ptr, align 8
  %6 = alloca ptr, align 8
  %7 = alloca i64, align 8
  %8 = alloca i64, align 8
  %9 = alloca i32, align 4
  store ptr %0, ptr %5, align 8, !tbaa !4
  store ptr %1, ptr %6, align 8, !tbaa !42
  store i64 %2, ptr %7, align 8, !tbaa !55
  call void @llvm.lifetime.start.p0(i64 8, ptr %8) #7
  %10 = load ptr, ptr %5, align 8, !tbaa !4
  %11 = getelementptr inbounds nuw %struct._odictobject, ptr %10, i32 0, i32 1
  %12 = load ptr, ptr %11, align 8, !tbaa !45
  %13 = icmp eq ptr %12, null
  br i1 %13, label %14, label %15

14:                                               ; preds = %3
  store ptr null, ptr %4, align 8
  store i32 1, ptr %9, align 4
  br label %30

15:                                               ; preds = %3
  %16 = load ptr, ptr %5, align 8, !tbaa !4
  %17 = load ptr, ptr %6, align 8, !tbaa !42
  %18 = load i64, ptr %7, align 8, !tbaa !55
  %19 = call i64 @_odict_get_index(ptr noundef %16, ptr noundef %17, i64 noundef %18)
  store i64 %19, ptr %8, align 8, !tbaa !55
  %20 = load i64, ptr %8, align 8, !tbaa !55
  %21 = icmp slt i64 %20, 0
  br i1 %21, label %22, label %23

22:                                               ; preds = %15
  store ptr null, ptr %4, align 8
  store i32 1, ptr %9, align 4
  br label %30

23:                                               ; preds = %15
  %24 = load ptr, ptr %5, align 8, !tbaa !4
  %25 = getelementptr inbounds nuw %struct._odictobject, ptr %24, i32 0, i32 3
  %26 = load ptr, ptr %25, align 8, !tbaa !58
  %27 = load i64, ptr %8, align 8, !tbaa !55
  %28 = getelementptr ptr, ptr %26, i64 %27
  %29 = load ptr, ptr %28, align 8, !tbaa !46
  store ptr %29, ptr %4, align 8
  store i32 1, ptr %9, align 4
  br label %30

30:                                               ; preds = %23, %22, %14
  call void @llvm.lifetime.end.p0(i64 8, ptr %8) #7
  %31 = load ptr, ptr %4, align 8
  ret ptr %31
}

; Function Attrs: nounwind uwtable
define internal ptr @_odict_popkey_hash(ptr noundef %0, ptr noundef %1, ptr noundef %2, i64 noundef %3) #0 {
  %5 = alloca ptr, align 8
  %6 = alloca ptr, align 8
  %7 = alloca ptr, align 8
  %8 = alloca ptr, align 8
  %9 = alloca i64, align 8
  %10 = alloca ptr, align 8
  %11 = alloca ptr, align 8
  %12 = alloca i32, align 4
  %13 = alloca i32, align 4
  store ptr %0, ptr %6, align 8, !tbaa !42
  store ptr %1, ptr %7, align 8, !tbaa !42
  store ptr %2, ptr %8, align 8, !tbaa !42
  store i64 %3, ptr %9, align 8, !tbaa !55
  call void @llvm.lifetime.start.p0(i64 8, ptr %10) #7
  store ptr null, ptr %10, align 8, !tbaa !42
  call void @llvm.lifetime.start.p0(i64 8, ptr %11) #7
  %14 = load ptr, ptr %6, align 8, !tbaa !42
  %15 = load ptr, ptr %7, align 8, !tbaa !42
  %16 = load i64, ptr %9, align 8, !tbaa !55
  %17 = call ptr @_odict_find_node_hash(ptr noundef %14, ptr noundef %15, i64 noundef %16)
  store ptr %17, ptr %11, align 8, !tbaa !46
  %18 = load ptr, ptr %11, align 8, !tbaa !46
  %19 = icmp ne ptr %18, null
  br i1 %19, label %20, label %42

20:                                               ; preds = %4
  call void @llvm.lifetime.start.p0(i64 4, ptr %12) #7
  %21 = load ptr, ptr %6, align 8, !tbaa !42
  %22 = load ptr, ptr %11, align 8, !tbaa !46
  %23 = load ptr, ptr %7, align 8, !tbaa !42
  %24 = load i64, ptr %9, align 8, !tbaa !55
  %25 = call i32 @_odict_clear_node(ptr noundef %21, ptr noundef %22, ptr noundef %23, i64 noundef %24)
  store i32 %25, ptr %12, align 4, !tbaa !43
  %26 = load i32, ptr %12, align 4, !tbaa !43
  %27 = icmp slt i32 %26, 0
  br i1 %27, label %28, label %29

28:                                               ; preds = %20
  store i32 2, ptr %13, align 4
  br label %39

29:                                               ; preds = %20
  %30 = load ptr, ptr %6, align 8, !tbaa !42
  %31 = load ptr, ptr %7, align 8, !tbaa !42
  %32 = load i64, ptr %9, align 8, !tbaa !55
  %33 = call i32 @_PyDict_Pop_KnownHash(ptr noundef %30, ptr noundef %31, i64 noundef %32, ptr noundef %10)
  %34 = icmp eq i32 %33, 0
  br i1 %34, label %35, label %38

35:                                               ; preds = %29
  %36 = load ptr, ptr %8, align 8, !tbaa !42
  %37 = call ptr @_Py_NewRef(ptr noundef %36)
  store ptr %37, ptr %10, align 8, !tbaa !42
  br label %38

38:                                               ; preds = %35, %29
  store i32 0, ptr %13, align 4
  br label %39

39:                                               ; preds = %28, %38
  call void @llvm.lifetime.end.p0(i64 4, ptr %12) #7
  %40 = load i32, ptr %13, align 4
  switch i32 %40, label %60 [
    i32 0, label %41
  ]

41:                                               ; preds = %39
  br label %59

42:                                               ; preds = %4
  %43 = load ptr, ptr %10, align 8, !tbaa !42
  %44 = icmp eq ptr %43, null
  br i1 %44, label %45, label %58

45:                                               ; preds = %42
  %46 = call ptr @PyErr_Occurred()
  %47 = icmp ne ptr %46, null
  br i1 %47, label %58, label %48

48:                                               ; preds = %45
  %49 = load ptr, ptr %8, align 8, !tbaa !42
  %50 = icmp ne ptr %49, null
  br i1 %50, label %51, label %54

51:                                               ; preds = %48
  %52 = load ptr, ptr %8, align 8, !tbaa !42
  %53 = call ptr @_Py_NewRef(ptr noundef %52)
  store ptr %53, ptr %10, align 8, !tbaa !42
  br label %57

54:                                               ; preds = %48
  %55 = load ptr, ptr @PyExc_KeyError, align 8, !tbaa !42
  %56 = load ptr, ptr %7, align 8, !tbaa !42
  call void @PyErr_SetObject(ptr noundef %55, ptr noundef %56)
  br label %57

57:                                               ; preds = %54, %51
  br label %58

58:                                               ; preds = %57, %45, %42
  br label %59

59:                                               ; preds = %58, %41
  store i32 0, ptr %13, align 4
  br label %60

60:                                               ; preds = %59, %39
  call void @llvm.lifetime.end.p0(i64 8, ptr %11) #7
  %61 = load i32, ptr %13, align 4
  switch i32 %61, label %65 [
    i32 0, label %62
    i32 2, label %63
  ]

62:                                               ; preds = %60
  br label %63

63:                                               ; preds = %62, %60
  %64 = load ptr, ptr %10, align 8, !tbaa !42
  store ptr %64, ptr %5, align 8
  store i32 1, ptr %13, align 4
  br label %65

65:                                               ; preds = %63, %60
  call void @llvm.lifetime.end.p0(i64 8, ptr %10) #7
  %66 = load ptr, ptr %5, align 8
  ret ptr %66
}