; Function Attrs: nounwind uwtable
define internal fastcc ptr @_odict_popkey_hash(ptr noundef %0, ptr noundef %1, ptr noundef %2, i64 noundef %3) unnamed_addr #0 {
  %5 = alloca ptr, align 8
  call void @llvm.lifetime.start.p0(i64 8, ptr nonnull %5) #8
  store ptr null, ptr %5, align 8, !tbaa !53
  %6 = getelementptr inbounds nuw i8, ptr %0, i64 48
  %7 = load ptr, ptr %6, align 8, !tbaa !41
  %8 = icmp eq ptr %7, null
  br i1 %8, label %_odict_find_node_hash.exit.thread.thread, label %9

9:                                                ; preds = %4
  %10 = tail call fastcc i64 @_odict_get_index(ptr noundef nonnull %0, ptr noundef %1, i64 noundef %3)
  %11 = icmp slt i64 %10, 0
  br i1 %11, label %_odict_find_node_hash.exit.thread.thread, label %_odict_find_node_hash.exit

_odict_find_node_hash.exit:                       ; preds = %9
  %12 = getelementptr inbounds nuw i8, ptr %0, i64 64
  %13 = load ptr, ptr %12, align 8, !tbaa !40
  %14 = getelementptr ptr, ptr %13, i64 %10
  %15 = load ptr, ptr %14, align 8, !tbaa !50
  %.not = icmp eq ptr %15, null
  br i1 %.not, label %_odict_find_node_hash.exit.thread.thread, label %16

16:                                               ; preds = %_odict_find_node_hash.exit
  %17 = tail call fastcc i32 @_odict_clear_node(ptr noundef nonnull %0, ptr noundef nonnull %15, ptr noundef %1, i64 noundef %3)
  %18 = icmp sgt i32 %17, -1
  br i1 %18, label %19, label %.thread

19:                                               ; preds = %16
  %20 = call i32 @_PyDict_Pop_KnownHash(ptr noundef nonnull %0, ptr noundef %1, i64 noundef %3, ptr noundef nonnull %5) #8
  %21 = icmp eq i32 %20, 0
  br i1 %21, label %22, label %..thread_crit_edge

..thread_crit_edge:                               ; preds = %19
  %.pre = load ptr, ptr %5, align 8, !tbaa !53
  br label %.thread

22:                                               ; preds = %19
  %23 = load i32, ptr %2, align 8, !tbaa !38
  %24 = icmp slt i32 %23, 0
  br i1 %24, label %.thread, label %25

25:                                               ; preds = %22
  %26 = add nuw i32 %23, 1
  store i32 %26, ptr %2, align 8, !tbaa !38
  br label %.thread

_odict_find_node_hash.exit.thread.thread:         ; preds = %_odict_find_node_hash.exit, %9, %4
  %27 = tail call ptr @PyErr_Occurred() #8
  %.not21 = icmp eq ptr %27, null
  br i1 %.not21, label %28, label %.thread

28:                                               ; preds = %_odict_find_node_hash.exit.thread.thread
  %.not22 = icmp eq ptr %2, null
  br i1 %.not22, label %34, label %29

29:                                               ; preds = %28
  %30 = load i32, ptr %2, align 8, !tbaa !38
  %31 = icmp slt i32 %30, 0
  br i1 %31, label %.thread, label %32

32:                                               ; preds = %29
  %33 = add nuw i32 %30, 1
  store i32 %33, ptr %2, align 8, !tbaa !38
  br label %.thread

34:                                               ; preds = %28
  %35 = load ptr, ptr @PyExc_KeyError, align 8, !tbaa !53
  tail call void @PyErr_SetObject(ptr noundef %35, ptr noundef %1) #8
  br label %.thread

.thread:                                          ; preds = %32, %29, %25, %22, %..thread_crit_edge, %34, %_odict_find_node_hash.exit.thread.thread, %16
  %36 = phi ptr [ %.pre, %..thread_crit_edge ], [ null, %34 ], [ null, %_odict_find_node_hash.exit.thread.thread ], [ null, %16 ], [ %2, %22 ], [ %2, %25 ], [ %2, %29 ], [ %2, %32 ]
  call void @llvm.lifetime.end.p0(i64 8, ptr nonnull %5) #8
  ret ptr %36
}